; ModuleID = '1/1892.c'
source_filename = "1/1892.c"
target datalayout = "e-m:e-p270:32:32-p271:32:32-p272:64:64-i64:64-f80:128-n8:16:32:64-S128"
target triple = "x86_64-pc-linux-gnu"

@ans = dso_local global i32 0, align 4
@.str = private unnamed_addr constant [3 x i8] c"%d\00", align 1
@.str.1 = private unnamed_addr constant [4 x i8] c"%d\0A\00", align 1

; Function Attrs: noinline nounwind uwtable
define dso_local i32 @work(i32 %0, i32 %1) #0 {
  %3 = alloca i32, align 4
  %4 = alloca i32, align 4
  %5 = alloca i32, align 4
  %6 = alloca i32, align 4
  store i32 %0, i32* %4, align 4
  store i32 %1, i32* %5, align 4
  %7 = load i32, i32* %4, align 4
  %8 = icmp eq i32 %7, 1
  br i1 %8, label %9, label %16

9:                                                ; preds = %2
  %10 = load i32, i32* @ans, align 4
  %11 = add nsw i32 %10, 1
  store i32 %11, i32* @ans, align 4
  %12 = load i32, i32* %4, align 4
  %13 = load i32, i32* %5, align 4
  %14 = mul nsw i32 %12, %13
  %15 = load i32, i32* %5, align 4
  store i32 %15, i32* %3, align 4
  br label %37

16:                                               ; preds = %2
  %17 = load i32, i32* %5, align 4
  store i32 %17, i32* %6, align 4
  br label %18

18:                                               ; preds = %34, %16
  %19 = load i32, i32* %6, align 4
  %20 = load i32, i32* %4, align 4
  %21 = icmp sle i32 %19, %20
  br i1 %21, label %22, label %37

22:                                               ; preds = %18
  %23 = load i32, i32* %4, align 4
  %24 = load i32, i32* %6, align 4
  %25 = srem i32 %23, %24
  %26 = icmp eq i32 %25, 0
  br i1 %26, label %27, label %33

27:                                               ; preds = %22
  %28 = load i32, i32* %4, align 4
  %29 = load i32, i32* %6, align 4
  %30 = sdiv i32 %28, %29
  %31 = load i32, i32* %6, align 4
  %32 = call i32 @work(i32 %30, i32 %31)
  br label %33

33:                                               ; preds = %27, %22
  br label %34

34:                                               ; preds = %33
  %35 = load i32, i32* %6, align 4
  %36 = add nsw i32 %35, 1
  store i32 %36, i32* %6, align 4
  br label %18

37:                                               ; preds = %9, %18
  %38 = load i32, i32* %3, align 4
  ret i32 %38
}

; Function Attrs: noinline nounwind uwtable
define dso_local i32 @main() #0 {
  %1 = alloca i32, align 4
  %2 = alloca i32, align 4
  %3 = alloca i32, align 4
  store i32 0, i32* %1, align 4
  %4 = call i32 (i8*, ...) @__isoc99_scanf(i8* getelementptr inbounds ([3 x i8], [3 x i8]* @.str, i64 0, i64 0), i32* %2)
  br label %5

5:                                                ; preds = %9, %0
  %6 = load i32, i32* %2, align 4
  %7 = add nsw i32 %6, -1
  store i32 %7, i32* %2, align 4
  %8 = icmp ne i32 %6, 0
  br i1 %8, label %9, label %15

9:                                                ; preds = %5
  store i32 0, i32* @ans, align 4
  %10 = call i32 (i8*, ...) @__isoc99_scanf(i8* getelementptr inbounds ([3 x i8], [3 x i8]* @.str, i64 0, i64 0), i32* %3)
  %11 = load i32, i32* %3, align 4
  %12 = call i32 @work(i32 %11, i32 2)
  %13 = load i32, i32* @ans, align 4
  %14 = call i32 (i8*, ...) @printf(i8* getelementptr inbounds ([4 x i8], [4 x i8]* @.str.1, i64 0, i64 0), i32 %13)
  br label %5

15:                                               ; preds = %5
  ret i32 0
}

declare dso_local i32 @__isoc99_scanf(i8*, ...) #1

declare dso_local i32 @printf(i8*, ...) #1


!llvm.module.flags = !{!0}
!llvm.ident = !{!1}

!0 = !{i32 1, !"wchar_size", i32 4}
!1 = !{!"clang version 10.0.0-4ubuntu1 "}
